target datalayout = "e-m:e-p270:32:32-p271:32:32-p272:64:64-i64:64-i128:128-f80:128-n8:16:32:64-S128"
target triple = "x86_64-pc-linux-gnu"

%struct.Vmem = type { ptr, i64, i64 }
%struct.ParseContext_ = type { %struct.TokenData, i32, %union.SourceSpan, %union.SourceSpan, ptr, %struct.Lexer }
%struct.TokenData = type { ptr, i64, %union.anon.86 }
%union.anon.86 = type { %struct.anon.89 }
%struct.anon.89 = type { %struct.Int128_, i8 }
%struct.Int128_ = type { i64, i64 }
%union.SourceSpan = type { i64 }
%struct.Lexer = type { ptr, ptr, ptr, ptr, i32, i32, ptr, ptr, ptr, %struct.TokenData, %union.SourceSpan, i32, i32 }
%struct.Ast_ = type { %union.SourceSpan, i32, i8, %union.anon.62 }
%union.anon.62 = type { %struct.AstDocDirective_ }
%struct.AstDocDirective_ = type { i8, %union.anon.65 }
%union.anon.65 = type { %struct.anon.66 }
%struct.anon.66 = type { ptr, %union.SourceSpan, i8 }
%struct.VHeader_ = type { i32, i32, [0 x i8] }
%struct.Expr_ = type { ptr, %union.SourceSpan, i16, %union.anon.30 }
%union.anon.30 = type { %struct.ExprAnySwitch }
%struct.ExprAnySwitch = type { i8, %union.anon.32 }
%union.anon.32 = type { %struct.anon.33 }
%struct.anon.33 = type { ptr, %union.SourceSpan, ptr }
%struct.AstAssertStmt = type { i8, i32, i32, ptr }

@poisoned_ast = external global ptr, align 8
@expr_arena = external global %struct.Vmem, align 8
@.str.15 = private unnamed_addr constant [21 x i8] c"Expected a ';' here.\00", align 1
@ast_arena = external global %struct.Vmem, align 8
@.str.44 = private unnamed_addr constant [46 x i8] c"'assert' needs a '(' here, did you forget it?\00", align 1
@.str.45 = private unnamed_addr constant [34 x i8] c"The ending ')' was expected here.\00", align 1

; Function Attrs: nounwind uwtable
define internal ptr @vec_new_(i64 noundef %0, i64 noundef %1) #0 {
  %3 = alloca i64, align 8
  %4 = alloca i64, align 8
  %5 = alloca ptr, align 8
  store i64 %0, ptr %3, align 8
  store i64 %1, ptr %4, align 8
  %6 = load i64, ptr %3, align 8
  %7 = load i64, ptr %4, align 8
  %8 = mul i64 %6, %7
  %9 = add i64 %8, 8
  %10 = call ptr @calloc_arena(i64 noundef %9)
  store ptr %10, ptr %5, align 8
  %11 = load i64, ptr %4, align 8
  %12 = trunc i64 %11 to i32
  %13 = load ptr, ptr %5, align 8
  %14 = getelementptr inbounds %struct.VHeader_, ptr %13, i32 0, i32 1
  store i32 %12, ptr %14, align 4
  %15 = load ptr, ptr %5, align 8
  ret ptr %15
}

; Function Attrs: nounwind uwtable
define internal ptr @consume_eos(ptr noundef %0, ptr noundef %1) #0 {
  %3 = alloca ptr, align 8
  %4 = alloca ptr, align 8
  %5 = alloca ptr, align 8
  store ptr %0, ptr %4, align 8
  store ptr %1, ptr %5, align 8
  %6 = load ptr, ptr %4, align 8
  %7 = call zeroext i1 @try_consume(ptr noundef %6, i32 noundef 9)
  br i1 %7, label %15, label %8

8:                                                ; preds = %2
  %9 = load ptr, ptr %4, align 8
  %10 = getelementptr inbounds %struct.ParseContext_, ptr %9, i32 0, i32 3
  %11 = getelementptr inbounds %union.SourceSpan, ptr %10, i32 0, i32 0
  %12 = load i64, ptr %11, align 8
  call void (i64, ptr, ...) @sema_error_at_after(i64 %12, ptr noundef @.str.15)
  %13 = load ptr, ptr %4, align 8
  call void @advance(ptr noundef %13)
  %14 = load ptr, ptr @poisoned_ast, align 8
  store ptr %14, ptr %3, align 8
  br label %17

15:                                               ; preds = %2
  %16 = load ptr, ptr %5, align 8
  store ptr %16, ptr %3, align 8
  br label %17

17:                                               ; preds = %15, %8
  %18 = load ptr, ptr %3, align 8
  ret ptr %18
}

; Function Attrs: nounwind uwtable
define internal ptr @expand_(ptr noundef %0, i64 noundef %1) #0 {
  %3 = alloca ptr, align 8
  %4 = alloca i64, align 8
  %5 = alloca ptr, align 8
  %6 = alloca ptr, align 8
  %7 = alloca i64, align 8
  store ptr %0, ptr %3, align 8
  store i64 %1, ptr %4, align 8
  %8 = load ptr, ptr %3, align 8
  %9 = icmp ne ptr %8, null
  br i1 %9, label %13, label %10

10:                                               ; preds = %2
  %11 = load i64, ptr %4, align 8
  %12 = call ptr @vec_new_(i64 noundef %11, i64 noundef 8)
  store ptr %12, ptr %5, align 8
  br label %16

13:                                               ; preds = %2
  %14 = load ptr, ptr %3, align 8
  %15 = getelementptr inbounds %struct.VHeader_, ptr %14, i64 -1
  store ptr %15, ptr %5, align 8
  br label %16

16:                                               ; preds = %13, %10
  %17 = load ptr, ptr %5, align 8
  %18 = getelementptr inbounds %struct.VHeader_, ptr %17, i32 0, i32 0
  %19 = load i32, ptr %18, align 4
  %20 = load ptr, ptr %5, align 8
  %21 = getelementptr inbounds %struct.VHeader_, ptr %20, i32 0, i32 1
  %22 = load i32, ptr %21, align 4
  %23 = icmp eq i32 %19, %22
  br i1 %23, label %24, label %49

24:                                               ; preds = %16
  %25 = load i64, ptr %4, align 8
  %26 = load ptr, ptr %5, align 8
  %27 = getelementptr inbounds %struct.VHeader_, ptr %26, i32 0, i32 1
  %28 = load i32, ptr %27, align 4
  %29 = shl i32 %28, 1
  %30 = zext i32 %29 to i64
  %31 = call ptr @vec_new_(i64 noundef %25, i64 noundef %30)
  store ptr %31, ptr %6, align 8
  %32 = load i64, ptr %4, align 8
  %33 = load ptr, ptr %5, align 8
  %34 = getelementptr inbounds %struct.VHeader_, ptr %33, i32 0, i32 1
  %35 = load i32, ptr %34, align 4
  %36 = zext i32 %35 to i64
  %37 = mul i64 %32, %36
  %38 = add i64 %37, 8
  store i64 %38, ptr %7, align 8
  %39 = load ptr, ptr %6, align 8
  %40 = load ptr, ptr %5, align 8
  %41 = load i64, ptr %7, align 8
  call void @llvm.memcpy.p0.p0.i64(ptr align 4 %39, ptr align 4 %40, i64 %41, i1 false)
  %42 = load ptr, ptr %6, align 8
  store ptr %42, ptr %5, align 8
  %43 = load ptr, ptr %5, align 8
  %44 = getelementptr inbounds %struct.VHeader_, ptr %43, i32 0, i32 1
  %45 = load i32, ptr %44, align 4
  %46 = shl i32 %45, 1
  %47 = load ptr, ptr %6, align 8
  %48 = getelementptr inbounds %struct.VHeader_, ptr %47, i32 0, i32 1
  store i32 %46, ptr %48, align 4
  br label %49

49:                                               ; preds = %24, %16
  %50 = load ptr, ptr %5, align 8
  %51 = getelementptr inbounds %struct.VHeader_, ptr %50, i32 0, i32 0
  %52 = load i32, ptr %51, align 4
  %53 = add i32 %52, 1
  store i32 %53, ptr %51, align 4
  %54 = load ptr, ptr %5, align 8
  %55 = getelementptr inbounds %struct.VHeader_, ptr %54, i64 1
  ret ptr %55
}

; Function Attrs: nounwind uwtable
define internal i32 @exprid(ptr noundef %0) #0 {
  %2 = alloca ptr, align 8
  store ptr %0, ptr %2, align 8
  %3 = load ptr, ptr %2, align 8
  %4 = load ptr, ptr @expr_arena, align 8
  %5 = ptrtoint ptr %3 to i64
  %6 = ptrtoint ptr %4 to i64
  %7 = sub i64 %5, %6
  %8 = sdiv exact i64 %7, 56
  %9 = trunc i64 %8 to i32
  ret i32 %9
}

; Function Attrs: nounwind uwtable
define internal ptr @ast_calloc() #0 {
  %1 = call ptr @vmem_alloc(ptr noundef @ast_arena, i64 noundef 48)
  ret ptr %1
}

; Function Attrs: nounwind uwtable
define internal ptr @parse_assert_stmt(ptr noundef %0) #0 {
  %2 = alloca %union.SourceSpan, align 8
  %3 = alloca i32, align 4
  %4 = alloca ptr, align 8
  %5 = alloca ptr, align 8
  %6 = alloca ptr, align 8
  %7 = alloca ptr, align 8
  %8 = alloca ptr, align 8
  %9 = alloca i32, align 4
  %10 = alloca ptr, align 8
  %11 = alloca i32, align 4
  %12 = alloca i32, align 4
  %13 = alloca ptr, align 8
  %14 = alloca ptr, align 8
  %15 = alloca ptr, align 8
  %16 = alloca ptr, align 8
  %17 = alloca ptr, align 8
  %18 = alloca ptr, align 8
  %19 = alloca ptr, align 8
  %20 = alloca ptr, align 8
  %21 = alloca ptr, align 8
  %22 = alloca ptr, align 8
  %23 = alloca ptr, align 8
  store ptr %0, ptr %16, align 8
  %24 = load ptr, ptr %16, align 8
  store ptr %24, ptr %10, align 8
  store i32 3, ptr %11, align 4
  %25 = load i32, ptr %11, align 4
  %26 = load ptr, ptr %10, align 8
  %27 = getelementptr inbounds %struct.ParseContext_, ptr %26, i32 0, i32 2
  %28 = load i64, ptr %27, align 8
  store i64 %28, ptr %2, align 8
  store i32 %25, ptr %3, align 4
  %29 = call ptr @ast_calloc()
  store ptr %29, ptr %4, align 8
  %30 = load ptr, ptr %4, align 8
  call void @llvm.memcpy.p0.p0.i64(ptr align 8 %30, ptr align 8 %2, i64 8, i1 false)
  %31 = load i32, ptr %3, align 4
  %32 = load ptr, ptr %4, align 8
  %33 = getelementptr inbounds %struct.Ast_, ptr %32, i32 0, i32 2
  %34 = trunc i32 %31 to i8
  store i8 %34, ptr %33, align 4
  %35 = load ptr, ptr %4, align 8
  store ptr %35, ptr %17, align 8
  %36 = load ptr, ptr %16, align 8
  store ptr %36, ptr %8, align 8
  store i32 105, ptr %9, align 4
  %37 = load ptr, ptr %8, align 8
  call void @advance(ptr noundef %37) #4
  br label %38

38:                                               ; preds = %1
  %39 = load ptr, ptr %16, align 8
  %40 = call zeroext i1 (ptr, i32, ptr, ...) @consume(ptr noundef %39, i32 noundef 19, ptr noundef @.str.44)
  br i1 %40, label %43, label %41

41:                                               ; preds = %38
  %42 = load ptr, ptr @poisoned_ast, align 8
  store ptr %42, ptr %15, align 8
  br label %151

43:                                               ; preds = %38
  br label %44

44:                                               ; preds = %43
  %45 = load ptr, ptr %16, align 8
  %46 = call ptr @parse_expr(ptr noundef %45)
  store ptr %46, ptr %18, align 8
  %47 = load ptr, ptr %18, align 8
  store ptr %47, ptr %5, align 8
  %48 = load ptr, ptr %5, align 8
  %49 = icmp eq ptr %48, null
  br i1 %49, label %57, label %50

50:                                               ; preds = %44
  %51 = load ptr, ptr %5, align 8
  %52 = getelementptr inbounds %struct.Expr_, ptr %51, i32 0, i32 2
  %53 = load i16, ptr %52, align 8
  %54 = and i16 %53, 255
  %55 = zext i16 %54 to i32
  %56 = icmp ne i32 %55, 0
  br label %57

57:                                               ; preds = %50, %44
  %58 = phi i1 [ true, %44 ], [ %56, %50 ]
  br i1 %58, label %61, label %59

59:                                               ; preds = %57
  %60 = load ptr, ptr @poisoned_ast, align 8
  store ptr %60, ptr %15, align 8
  br label %151

61:                                               ; preds = %57
  %62 = load ptr, ptr %18, align 8
  %63 = call i32 @exprid(ptr noundef %62)
  %64 = load ptr, ptr %17, align 8
  %65 = getelementptr inbounds %struct.Ast_, ptr %64, i32 0, i32 3
  %66 = getelementptr inbounds %struct.AstAssertStmt, ptr %65, i32 0, i32 2
  store i32 %63, ptr %66, align 8
  %67 = load ptr, ptr %16, align 8
  %68 = call zeroext i1 @try_consume(ptr noundef %67, i32 noundef 8)
  br i1 %68, label %69, label %140

69:                                               ; preds = %61
  store ptr null, ptr %19, align 8
  %70 = load ptr, ptr %16, align 8
  %71 = call ptr @parse_constant_expr(ptr noundef %70)
  store ptr %71, ptr %20, align 8
  %72 = load ptr, ptr %20, align 8
  store ptr %72, ptr %6, align 8
  %73 = load ptr, ptr %6, align 8
  %74 = icmp eq ptr %73, null
  br i1 %74, label %82, label %75

75:                                               ; preds = %69
  %76 = load ptr, ptr %6, align 8
  %77 = getelementptr inbounds %struct.Expr_, ptr %76, i32 0, i32 2
  %78 = load i16, ptr %77, align 8
  %79 = and i16 %78, 255
  %80 = zext i16 %79 to i32
  %81 = icmp ne i32 %80, 0
  br label %82

82:                                               ; preds = %75, %69
  %83 = phi i1 [ true, %69 ], [ %81, %75 ]
  br i1 %83, label %86, label %84

84:                                               ; preds = %82
  %85 = load ptr, ptr @poisoned_ast, align 8
  store ptr %85, ptr %15, align 8
  br label %151

86:                                               ; preds = %82
  %87 = load ptr, ptr %20, align 8
  %88 = call i32 @exprid(ptr noundef %87)
  %89 = load ptr, ptr %17, align 8
  %90 = getelementptr inbounds %struct.Ast_, ptr %89, i32 0, i32 3
  %91 = getelementptr inbounds %struct.AstAssertStmt, ptr %90, i32 0, i32 1
  store i32 %88, ptr %91, align 4
  br label %92

92:                                               ; preds = %134, %86
  %93 = load ptr, ptr %16, align 8
  %94 = call zeroext i1 @try_consume(ptr noundef %93, i32 noundef 8)
  br i1 %94, label %95, label %135

95:                                               ; preds = %92
  %96 = load ptr, ptr %16, align 8
  %97 = call ptr @parse_expr(ptr noundef %96)
  store ptr %97, ptr %21, align 8
  %98 = load ptr, ptr %21, align 8
  store ptr %98, ptr %7, align 8
  %99 = load ptr, ptr %7, align 8
  %100 = icmp eq ptr %99, null
  br i1 %100, label %108, label %101

101:                                              ; preds = %95
  %102 = load ptr, ptr %7, align 8
  %103 = getelementptr inbounds %struct.Expr_, ptr %102, i32 0, i32 2
  %104 = load i16, ptr %103, align 8
  %105 = and i16 %104, 255
  %106 = zext i16 %105 to i32
  %107 = icmp ne i32 %106, 0
  br label %108

108:                                              ; preds = %101, %95
  %109 = phi i1 [ true, %95 ], [ %107, %101 ]
  br i1 %109, label %112, label %110

110:                                              ; preds = %108
  %111 = load ptr, ptr @poisoned_ast, align 8
  store ptr %111, ptr %15, align 8
  br label %151

112:                                              ; preds = %108
  %113 = load ptr, ptr %21, align 8
  store ptr %113, ptr %22, align 8
  br label %114

114:                                              ; preds = %112
  %115 = load ptr, ptr %19, align 8
  %116 = call ptr @expand_(ptr noundef %115, i64 noundef 8)
  store ptr %116, ptr %23, align 8
  %117 = load ptr, ptr %23, align 8
  store ptr %117, ptr %19, align 8
  %118 = load ptr, ptr %22, align 8
  %119 = load ptr, ptr %19, align 8
  %120 = load ptr, ptr %19, align 8
  store ptr %120, ptr %13, align 8
  %121 = load ptr, ptr %13, align 8
  %122 = icmp ne ptr %121, null
  br i1 %122, label %124, label %123

123:                                              ; preds = %114
  store i32 0, ptr %12, align 4
  br label %129

124:                                              ; preds = %114
  %125 = load ptr, ptr %13, align 8
  store ptr %125, ptr %14, align 8
  %126 = load ptr, ptr %14, align 8
  %127 = getelementptr inbounds %struct.VHeader_, ptr %126, i64 -1
  %128 = load i32, ptr %127, align 4
  store i32 %128, ptr %12, align 4
  br label %129

129:                                              ; preds = %124, %123
  %130 = load i32, ptr %12, align 4
  %131 = sub i32 %130, 1
  %132 = zext i32 %131 to i64
  %133 = getelementptr inbounds ptr, ptr %119, i64 %132
  store ptr %118, ptr %133, align 8
  br label %134

134:                                              ; preds = %129
  br label %92, !llvm.loop !15

135:                                              ; preds = %92
  %136 = load ptr, ptr %19, align 8
  %137 = load ptr, ptr %17, align 8
  %138 = getelementptr inbounds %struct.Ast_, ptr %137, i32 0, i32 3
  %139 = getelementptr inbounds %struct.AstAssertStmt, ptr %138, i32 0, i32 3
  store ptr %136, ptr %139, align 8
  br label %140

140:                                              ; preds = %135, %61
  br label %141

141:                                              ; preds = %140
  %142 = load ptr, ptr %16, align 8
  %143 = call zeroext i1 (ptr, i32, ptr, ...) @consume(ptr noundef %142, i32 noundef 26, ptr noundef @.str.45)
  br i1 %143, label %146, label %144

144:                                              ; preds = %141
  %145 = load ptr, ptr @poisoned_ast, align 8
  store ptr %145, ptr %15, align 8
  br label %151

146:                                              ; preds = %141
  br label %147

147:                                              ; preds = %146
  %148 = load ptr, ptr %16, align 8
  %149 = load ptr, ptr %17, align 8
  %150 = call ptr @consume_eos(ptr noundef %148, ptr noundef %149)
  store ptr %150, ptr %15, align 8
  br label %151

151:                                              ; preds = %147, %144, %110, %84, %59, %41
  %152 = load ptr, ptr %15, align 8
  ret ptr %152
}