; Function Attrs: nounwind uwtable
define internal fastcc ptr @parse_assert_stmt(ptr noundef %0) unnamed_addr #0 {
  %2 = getelementptr inbounds i8, ptr %0, i64 48
  %3 = load i64, ptr %2, align 8
  %4 = tail call ptr @vmem_alloc(ptr noundef nonnull @ast_arena, i64 noundef 48) #5
  store i64 %3, ptr %4, align 8
  %5 = getelementptr inbounds i8, ptr %4, i64 12
  store i8 3, ptr %5, align 4
  tail call void @advance(ptr noundef %0) #5
  %6 = tail call zeroext i1 (ptr, i32, ptr, ...) @consume(ptr noundef %0, i32 noundef 19, ptr noundef nonnull @.str.44) #5
  br i1 %6, label %9, label %7

7:                                                ; preds = %1
  %8 = load ptr, ptr @poisoned_ast, align 8
  br label %consume_eos.exit

9:                                                ; preds = %1
  %10 = tail call ptr @parse_expr(ptr noundef nonnull %0) #5
  %11 = icmp eq ptr %10, null
  br i1 %11, label %.critedge, label %12

12:                                               ; preds = %9
  %13 = getelementptr inbounds i8, ptr %10, i64 16
  %14 = load i16, ptr %13, align 8
  %15 = and i16 %14, 255
  %.not = icmp eq i16 %15, 0
  br i1 %.not, label %17, label %.split

.split:                                           ; preds = %12
  %16 = ptrtoint ptr %10 to i64
  br label %.critedge

17:                                               ; preds = %12
  %18 = load ptr, ptr @poisoned_ast, align 8
  br label %consume_eos.exit

.critedge:                                        ; preds = %9, %.split
  %.sink = phi i64 [ %16, %.split ], [ 0, %9 ]
  %.sink64 = load ptr, ptr @expr_arena, align 8
  %19 = ptrtoint ptr %.sink64 to i64
  %20 = sub i64 %.sink, %19
  %phi.call.in = sdiv exact i64 %20, 56
  %phi.call = trunc i64 %phi.call.in to i32
  %21 = getelementptr inbounds i8, ptr %4, i64 24
  store i32 %phi.call, ptr %21, align 8
  %22 = tail call zeroext i1 @try_consume(ptr noundef nonnull %0, i32 noundef 8) #5
  br i1 %22, label %23, label %76

23:                                               ; preds = %.critedge
  %24 = tail call ptr @parse_constant_expr(ptr noundef nonnull %0) #5
  %25 = icmp eq ptr %24, null
  br i1 %25, label %.critedge2, label %26

26:                                               ; preds = %23
  %27 = getelementptr inbounds i8, ptr %24, i64 16
  %28 = load i16, ptr %27, align 8
  %29 = and i16 %28, 255
  %.not57 = icmp eq i16 %29, 0
  br i1 %.not57, label %31, label %.split50

.split50:                                         ; preds = %26
  %30 = ptrtoint ptr %24 to i64
  br label %.critedge2

31:                                               ; preds = %26
  %32 = load ptr, ptr @poisoned_ast, align 8
  br label %consume_eos.exit

.critedge2:                                       ; preds = %23, %.split50
  %.sink65 = phi i64 [ %30, %.split50 ], [ 0, %23 ]
  %.sink67 = load ptr, ptr @expr_arena, align 8
  %33 = ptrtoint ptr %.sink67 to i64
  %34 = sub i64 %.sink65, %33
  %phi.call52.in = sdiv exact i64 %34, 56
  %phi.call52 = trunc i64 %phi.call52.in to i32
  %35 = getelementptr inbounds i8, ptr %4, i64 20
  store i32 %phi.call52, ptr %35, align 4
  %36 = tail call zeroext i1 @try_consume(ptr noundef nonnull %0, i32 noundef 8) #5
  br i1 %36, label %.lr.ph, label %._crit_edge

.lr.ph:                                           ; preds = %.critedge2, %68
  %.04862 = phi ptr [ %71, %68 ], [ null, %.critedge2 ]
  %37 = tail call ptr @parse_expr(ptr noundef %0) #5
  %38 = icmp eq ptr %37, null
  br i1 %38, label %.critedge4, label %39

39:                                               ; preds = %.lr.ph
  %40 = getelementptr inbounds i8, ptr %37, i64 16
  %41 = load i16, ptr %40, align 8
  %42 = and i16 %41, 255
  %.not58 = icmp eq i16 %42, 0
  br i1 %.not58, label %43, label %.critedge4

43:                                               ; preds = %39
  %44 = load ptr, ptr @poisoned_ast, align 8
  br label %consume_eos.exit

.critedge4:                                       ; preds = %.lr.ph, %39
  %.not.i = icmp eq ptr %.04862, null
  br i1 %.not.i, label %45, label %48

45:                                               ; preds = %.critedge4
  %46 = tail call ptr @calloc_arena(i64 noundef 72) #5
  %47 = getelementptr inbounds i8, ptr %46, i64 4
  store i32 8, ptr %47, align 4
  br label %50

48:                                               ; preds = %.critedge4
  %49 = getelementptr inbounds i8, ptr %.04862, i64 -8
  %.phi.trans.insert.i = getelementptr inbounds i8, ptr %.04862, i64 -4
  %.pre.i = load i32, ptr %.phi.trans.insert.i, align 4
  br label %50

50:                                               ; preds = %48, %45
  %51 = phi i32 [ %.pre.i, %48 ], [ 8, %45 ]
  %.0.i = phi ptr [ %49, %48 ], [ %46, %45 ]
  %52 = load i32, ptr %.0.i, align 4
  %53 = icmp eq i32 %52, %51
  br i1 %53, label %54, label %68

54:                                               ; preds = %50
  %55 = getelementptr inbounds i8, ptr %.0.i, i64 4
  %56 = shl i32 %51, 1
  %57 = zext i32 %56 to i64
  %58 = shl nuw nsw i64 %57, 3
  %59 = or disjoint i64 %58, 8
  %60 = tail call ptr @calloc_arena(i64 noundef %59) #5
  %61 = getelementptr inbounds i8, ptr %60, i64 4
  store i32 %56, ptr %61, align 4
  %62 = load i32, ptr %55, align 4
  %63 = zext i32 %62 to i64
  %64 = shl nuw nsw i64 %63, 3
  %65 = add nuw nsw i64 %64, 8
  tail call void @llvm.memcpy.p0.p0.i64(ptr noundef nonnull align 4 dereferenceable(1) %60, ptr noundef nonnull align 4 dereferenceable(1) %.0.i, i64 %65, i1 false)
  %66 = load i32, ptr %61, align 4
  %67 = shl i32 %66, 1
  store i32 %67, ptr %61, align 4
  %.pre18.i = load i32, ptr %60, align 4
  br label %68

68:                                               ; preds = %50, %54
  %69 = phi i32 [ %.pre18.i, %54 ], [ %52, %50 ]
  %.1.i = phi ptr [ %60, %54 ], [ %.0.i, %50 ]
  %70 = add i32 %69, 1
  store i32 %70, ptr %.1.i, align 4
  %71 = getelementptr inbounds i8, ptr %.1.i, i64 8
  %72 = zext i32 %69 to i64
  %73 = getelementptr inbounds ptr, ptr %71, i64 %72
  store ptr %37, ptr %73, align 8
  %74 = tail call zeroext i1 @try_consume(ptr noundef %0, i32 noundef 8) #5
  br i1 %74, label %.lr.ph, label %._crit_edge, !llvm.loop !17

._crit_edge:                                      ; preds = %68, %.critedge2
  %.048.lcssa = phi ptr [ null, %.critedge2 ], [ %71, %68 ]
  %75 = getelementptr inbounds i8, ptr %4, i64 32
  store ptr %.048.lcssa, ptr %75, align 8
  br label %76

76:                                               ; preds = %.critedge, %._crit_edge
  %77 = tail call zeroext i1 (ptr, i32, ptr, ...) @consume(ptr noundef %0, i32 noundef 26, ptr noundef nonnull @.str.45) #5
  br i1 %77, label %80, label %78

78:                                               ; preds = %76
  %79 = load ptr, ptr @poisoned_ast, align 8
  br label %consume_eos.exit

80:                                               ; preds = %76
  %81 = tail call zeroext i1 @try_consume(ptr noundef %0, i32 noundef 9) #5
  br i1 %81, label %consume_eos.exit, label %82

82:                                               ; preds = %80
  %83 = getelementptr inbounds i8, ptr %0, i64 56
  %84 = load i64, ptr %83, align 8
  tail call void (i64, ptr, ...) @sema_error_at_after(i64 %84, ptr noundef nonnull @.str.15) #5
  tail call void @advance(ptr noundef %0) #5
  %85 = load ptr, ptr @poisoned_ast, align 8
  br label %consume_eos.exit

consume_eos.exit:                                 ; preds = %82, %80, %78, %43, %31, %17, %7
  %.047 = phi ptr [ %44, %43 ], [ %79, %78 ], [ %32, %31 ], [ %18, %17 ], [ %8, %7 ], [ %85, %82 ], [ %4, %80 ]
  ret ptr %.047
}